; Function Attrs: mustprogress uwtable
define dso_local noundef i32 @_Z12lua_rawequalP9lua_Stateii(ptr noundef readonly captures(none) %0, i32 noundef %1, i32 noundef %2) local_unnamed_addr #3 {
  %4 = icmp sgt i32 %1, 0
  br i1 %4, label %5, label %13

5:                                                ; preds = %3
  %6 = getelementptr inbounds nuw i8, ptr %0, i64 16
  %7 = load ptr, ptr %6, align 8, !tbaa !4
  %8 = zext nneg i32 %1 to i64
  %9 = getelementptr %struct.lua_TValue, ptr %7, i64 %8
  %10 = getelementptr i8, ptr %9, i64 -16
  %11 = getelementptr inbounds nuw i8, ptr %0, i64 8
  %12 = load ptr, ptr %11, align 8, !tbaa !19
  %.not.i10 = icmp ult ptr %10, %12
  %.luaO_nilobject_.i11 = select i1 %.not.i10, ptr %10, ptr @luaO_nilobject_
  br label %_ZL10index2addrP9lua_Statei.exit12

13:                                               ; preds = %3
  %14 = icmp sgt i32 %1, -10000
  br i1 %14, label %15, label %20

15:                                               ; preds = %13
  %16 = getelementptr inbounds nuw i8, ptr %0, i64 8
  %17 = load ptr, ptr %16, align 8, !tbaa !19
  %18 = sext i32 %1 to i64
  %19 = getelementptr inbounds %struct.lua_TValue, ptr %17, i64 %18
  br label %_ZL10index2addrP9lua_Statei.exit12

20:                                               ; preds = %13
  %21 = tail call fastcc noundef ptr @_ZL11pseudo2addrP9lua_Statei(ptr noundef %0, i32 noundef %1)
  br label %_ZL10index2addrP9lua_Statei.exit12

_ZL10index2addrP9lua_Statei.exit12:               ; preds = %5, %15, %20
  %.1.i9 = phi ptr [ %.luaO_nilobject_.i11, %5 ], [ %19, %15 ], [ %21, %20 ]
  %22 = icmp sgt i32 %2, 0
  br i1 %22, label %23, label %31

23:                                               ; preds = %_ZL10index2addrP9lua_Statei.exit12
  %24 = getelementptr inbounds nuw i8, ptr %0, i64 16
  %25 = load ptr, ptr %24, align 8, !tbaa !4
  %26 = zext nneg i32 %2 to i64
  %27 = getelementptr %struct.lua_TValue, ptr %25, i64 %26
  %28 = getelementptr i8, ptr %27, i64 -16
  %29 = getelementptr inbounds nuw i8, ptr %0, i64 8
  %30 = load ptr, ptr %29, align 8, !tbaa !19
  %.not.i = icmp ult ptr %28, %30
  %.luaO_nilobject_.i = select i1 %.not.i, ptr %28, ptr @luaO_nilobject_
  br label %_ZL10index2addrP9lua_Statei.exit

31:                                               ; preds = %_ZL10index2addrP9lua_Statei.exit12
  %32 = icmp sgt i32 %2, -10000
  br i1 %32, label %33, label %38

33:                                               ; preds = %31
  %34 = getelementptr inbounds nuw i8, ptr %0, i64 8
  %35 = load ptr, ptr %34, align 8, !tbaa !19
  %36 = sext i32 %2 to i64
  %37 = getelementptr inbounds %struct.lua_TValue, ptr %35, i64 %36
  br label %_ZL10index2addrP9lua_Statei.exit

38:                                               ; preds = %31
  %39 = tail call fastcc noundef ptr @_ZL11pseudo2addrP9lua_Statei(ptr noundef %0, i32 noundef %2)
  br label %_ZL10index2addrP9lua_Statei.exit

_ZL10index2addrP9lua_Statei.exit:                 ; preds = %23, %33, %38
  %.1.i = phi ptr [ %.luaO_nilobject_.i, %23 ], [ %37, %33 ], [ %39, %38 ]
  %40 = icmp eq ptr %.1.i9, @luaO_nilobject_
  %41 = icmp eq ptr %.1.i, @luaO_nilobject_
  %or.cond = or i1 %40, %41
  br i1 %or.cond, label %44, label %42

42:                                               ; preds = %_ZL10index2addrP9lua_Statei.exit
  %43 = tail call noundef i32 @_Z16luaO_rawequalObjPK10lua_TValueS1_(ptr noundef %.1.i9, ptr noundef %.1.i)
  br label %44

44:                                               ; preds = %_ZL10index2addrP9lua_Statei.exit, %42
  %45 = phi i32 [ %43, %42 ], [ 0, %_ZL10index2addrP9lua_Statei.exit ]
  ret i32 %45
}